target datalayout = "e-m:e-p270:32:32-p271:32:32-p272:64:64-i64:64-i128:128-f80:128-n8:16:32:64-S128"
target triple = "x86_64-pc-linux-gnu"

%struct.stbi_io_callbacks = type { ptr, ptr, ptr }
%struct.stbi__context = type { i32, i32, i32, i32, %struct.stbi_io_callbacks, ptr, i32, i32, [128 x i8], i32, ptr, ptr, ptr, ptr }
%struct.stbi__jpeg = type { ptr, [4 x %struct.stbi__huffman], [4 x %struct.stbi__huffman], [4 x [64 x i16]], [4 x [512 x i16]], i32, i32, i32, i32, i32, i32, [4 x %struct.anon], i32, i32, i8, i32, i32, i32, i32, i32, i32, i32, i32, i32, i32, i32, [4 x i32], i32, i32, ptr, ptr, ptr }
%struct.stbi__huffman = type { [512 x i8], [256 x i16], [256 x i8], [257 x i8], [18 x i32], [17 x i32] }
%struct.anon = type { i32, i32, i32, i32, i32, i32, i32, i32, i32, i32, i32, ptr, ptr, ptr, ptr, ptr, i32, i32 }

@stbi__g_failure_reason = thread_local global ptr null, align 8
@.str.1 = private unnamed_addr constant [9 x i8] c"outofmem\00", align 1

; Function Attrs: nounwind uwtable
define void @stbi__rewind(ptr noundef %0) #0 {
  %2 = alloca ptr, align 8
  store ptr %0, ptr %2, align 8, !tbaa !3
  %3 = load ptr, ptr %2, align 8, !tbaa !3
  %4 = getelementptr inbounds nuw %struct.stbi__context, ptr %3, i32 0, i32 12
  %5 = load ptr, ptr %4, align 8, !tbaa !16
  %6 = load ptr, ptr %2, align 8, !tbaa !3
  %7 = getelementptr inbounds nuw %struct.stbi__context, ptr %6, i32 0, i32 10
  store ptr %5, ptr %7, align 8, !tbaa !17
  %8 = load ptr, ptr %2, align 8, !tbaa !3
  %9 = getelementptr inbounds nuw %struct.stbi__context, ptr %8, i32 0, i32 13
  %10 = load ptr, ptr %9, align 8, !tbaa !18
  %11 = load ptr, ptr %2, align 8, !tbaa !3
  %12 = getelementptr inbounds nuw %struct.stbi__context, ptr %11, i32 0, i32 11
  store ptr %10, ptr %12, align 8, !tbaa !19
  ret void
}

; Function Attrs: nounwind uwtable
define i32 @stbi__jpeg_info_raw(ptr noundef %0, ptr noundef %1, ptr noundef %2, ptr noundef %3) #0 {
  %5 = alloca i32, align 4
  %6 = alloca ptr, align 8
  %7 = alloca ptr, align 8
  %8 = alloca ptr, align 8
  %9 = alloca ptr, align 8
  store ptr %0, ptr %6, align 8, !tbaa !3
  store ptr %1, ptr %7, align 8, !tbaa !28
  store ptr %2, ptr %8, align 8, !tbaa !28
  store ptr %3, ptr %9, align 8, !tbaa !28
  %10 = load ptr, ptr %6, align 8, !tbaa !3
  %11 = call i32 @stbi__decode_jpeg_header(ptr noundef %10, i32 noundef 2)
  %12 = icmp ne i32 %11, 0
  br i1 %12, label %17, label %13

13:                                               ; preds = %4
  %14 = load ptr, ptr %6, align 8, !tbaa !3
  %15 = getelementptr inbounds nuw %struct.stbi__jpeg, ptr %14, i32 0, i32 0
  %16 = load ptr, ptr %15, align 8, !tbaa !86
  call void @stbi__rewind(ptr noundef %16)
  store i32 0, ptr %5, align 4
  br label %50

17:                                               ; preds = %4
  %18 = load ptr, ptr %7, align 8, !tbaa !28
  %19 = icmp ne ptr %18, null
  br i1 %19, label %20, label %27

20:                                               ; preds = %17
  %21 = load ptr, ptr %6, align 8, !tbaa !3
  %22 = getelementptr inbounds nuw %struct.stbi__jpeg, ptr %21, i32 0, i32 0
  %23 = load ptr, ptr %22, align 8, !tbaa !86
  %24 = getelementptr inbounds nuw %struct.stbi__context, ptr %23, i32 0, i32 0
  %25 = load i32, ptr %24, align 8, !tbaa !41
  %26 = load ptr, ptr %7, align 8, !tbaa !28
  store i32 %25, ptr %26, align 4, !tbaa !9
  br label %27

27:                                               ; preds = %20, %17
  %28 = load ptr, ptr %8, align 8, !tbaa !28
  %29 = icmp ne ptr %28, null
  br i1 %29, label %30, label %37

30:                                               ; preds = %27
  %31 = load ptr, ptr %6, align 8, !tbaa !3
  %32 = getelementptr inbounds nuw %struct.stbi__jpeg, ptr %31, i32 0, i32 0
  %33 = load ptr, ptr %32, align 8, !tbaa !86
  %34 = getelementptr inbounds nuw %struct.stbi__context, ptr %33, i32 0, i32 1
  %35 = load i32, ptr %34, align 4, !tbaa !40
  %36 = load ptr, ptr %8, align 8, !tbaa !28
  store i32 %35, ptr %36, align 4, !tbaa !9
  br label %37

37:                                               ; preds = %30, %27
  %38 = load ptr, ptr %9, align 8, !tbaa !28
  %39 = icmp ne ptr %38, null
  br i1 %39, label %40, label %49

40:                                               ; preds = %37
  %41 = load ptr, ptr %6, align 8, !tbaa !3
  %42 = getelementptr inbounds nuw %struct.stbi__jpeg, ptr %41, i32 0, i32 0
  %43 = load ptr, ptr %42, align 8, !tbaa !86
  %44 = getelementptr inbounds nuw %struct.stbi__context, ptr %43, i32 0, i32 2
  %45 = load i32, ptr %44, align 8, !tbaa !50
  %46 = icmp sge i32 %45, 3
  %47 = select i1 %46, i32 3, i32 1
  %48 = load ptr, ptr %9, align 8, !tbaa !28
  store i32 %47, ptr %48, align 4, !tbaa !9
  br label %49

49:                                               ; preds = %40, %37
  store i32 1, ptr %5, align 4
  br label %50

50:                                               ; preds = %49, %13
  %51 = load i32, ptr %5, align 4
  ret i32 %51
}

; Function Attrs: nounwind uwtable
define i32 @stbi__err(ptr noundef %0) #0 {
  %2 = alloca ptr, align 8
  store ptr %0, ptr %2, align 8, !tbaa !7
  %3 = load ptr, ptr %2, align 8, !tbaa !7
  %4 = call align 8 ptr @llvm.threadlocal.address.p0(ptr align 8 @stbi__g_failure_reason)
  store ptr %3, ptr %4, align 8, !tbaa !7
  ret i32 0
}

; Function Attrs: nounwind uwtable
define ptr @stbi__malloc(i64 noundef %0) #0 {
  %2 = alloca i64, align 8
  store i64 %0, ptr %2, align 8, !tbaa !26
  %3 = load i64, ptr %2, align 8, !tbaa !26
  %4 = call noalias ptr @malloc(i64 noundef %3) #14
  ret ptr %4
}

; Function Attrs: nounwind uwtable
define i32 @stbi__jpeg_info(ptr noundef %0, ptr noundef %1, ptr noundef %2, ptr noundef %3) #0 {
  %5 = alloca i32, align 4
  %6 = alloca ptr, align 8
  %7 = alloca ptr, align 8
  %8 = alloca ptr, align 8
  %9 = alloca ptr, align 8
  %10 = alloca i32, align 4
  %11 = alloca ptr, align 8
  %12 = alloca i32, align 4
  store ptr %0, ptr %6, align 8, !tbaa !3
  store ptr %1, ptr %7, align 8, !tbaa !28
  store ptr %2, ptr %8, align 8, !tbaa !28
  store ptr %3, ptr %9, align 8, !tbaa !28
  call void @llvm.lifetime.start.p0(i64 4, ptr %10) #13
  call void @llvm.lifetime.start.p0(i64 8, ptr %11) #13
  %13 = call ptr @stbi__malloc(i64 noundef 18568)
  store ptr %13, ptr %11, align 8, !tbaa !3
  %14 = load ptr, ptr %11, align 8, !tbaa !3
  %15 = icmp ne ptr %14, null
  br i1 %15, label %18, label %16

16:                                               ; preds = %4
  %17 = call i32 @stbi__err(ptr noundef @.str.1)
  store i32 %17, ptr %5, align 4
  store i32 1, ptr %12, align 4
  br label %30

18:                                               ; preds = %4
  %19 = load ptr, ptr %11, align 8, !tbaa !3
  call void @llvm.memset.p0.i64(ptr align 8 %19, i8 0, i64 18568, i1 false)
  %20 = load ptr, ptr %6, align 8, !tbaa !3
  %21 = load ptr, ptr %11, align 8, !tbaa !3
  %22 = getelementptr inbounds nuw %struct.stbi__jpeg, ptr %21, i32 0, i32 0
  store ptr %20, ptr %22, align 8, !tbaa !86
  %23 = load ptr, ptr %11, align 8, !tbaa !3
  %24 = load ptr, ptr %7, align 8, !tbaa !28
  %25 = load ptr, ptr %8, align 8, !tbaa !28
  %26 = load ptr, ptr %9, align 8, !tbaa !28
  %27 = call i32 @stbi__jpeg_info_raw(ptr noundef %23, ptr noundef %24, ptr noundef %25, ptr noundef %26)
  store i32 %27, ptr %10, align 4, !tbaa !9
  %28 = load ptr, ptr %11, align 8, !tbaa !3
  call void @free(ptr noundef %28) #13
  %29 = load i32, ptr %10, align 4, !tbaa !9
  store i32 %29, ptr %5, align 4
  store i32 1, ptr %12, align 4
  br label %30

30:                                               ; preds = %18, %16
  call void @llvm.lifetime.end.p0(i64 8, ptr %11) #13
  call void @llvm.lifetime.end.p0(i64 4, ptr %10) #13
  %31 = load i32, ptr %5, align 4
  ret i32 %31
}