; Function Attrs: nounwind uwtable
define range(i32 0, 2) i32 @stbi__jpeg_info(ptr noundef %0, ptr noundef writeonly captures(address_is_null) %1, ptr noundef writeonly captures(address_is_null) %2, ptr noundef writeonly captures(address_is_null) %3) local_unnamed_addr #2 {
  %calloc = tail call dereferenceable_or_null(18568) ptr @calloc(i64 1, i64 18568)
  %.not = icmp eq ptr %calloc, null
  br i1 %.not, label %5, label %7

5:                                                ; preds = %4
  %6 = tail call align 8 ptr @llvm.threadlocal.address.p0(ptr align 8 @stbi__g_failure_reason)
  store ptr @.str.1, ptr %6, align 8, !tbaa !22
  br label %32

7:                                                ; preds = %4
  store ptr %0, ptr %calloc, align 8, !tbaa !77
  %8 = tail call i32 @stbi__decode_jpeg_header(ptr noundef nonnull %calloc, i32 noundef 2)
  %.not.i = icmp eq i32 %8, 0
  br i1 %.not.i, label %9, label %17

9:                                                ; preds = %7
  %10 = load ptr, ptr %calloc, align 8, !tbaa !77
  %11 = getelementptr inbounds nuw i8, ptr %10, i64 208
  %12 = load ptr, ptr %11, align 8, !tbaa !13
  %13 = getelementptr inbounds nuw i8, ptr %10, i64 192
  store ptr %12, ptr %13, align 8, !tbaa !14
  %14 = getelementptr inbounds nuw i8, ptr %10, i64 216
  %15 = load ptr, ptr %14, align 8, !tbaa !15
  %16 = getelementptr inbounds nuw i8, ptr %10, i64 200
  store ptr %15, ptr %16, align 8, !tbaa !16
  br label %stbi__jpeg_info_raw.exit

17:                                               ; preds = %7
  %.not14.i = icmp eq ptr %1, null
  br i1 %.not14.i, label %21, label %18

18:                                               ; preds = %17
  %19 = load ptr, ptr %calloc, align 8, !tbaa !77
  %20 = load i32, ptr %19, align 8, !tbaa !41
  store i32 %20, ptr %1, align 4, !tbaa !23
  br label %21

21:                                               ; preds = %18, %17
  %.not15.i = icmp eq ptr %2, null
  br i1 %.not15.i, label %26, label %22

22:                                               ; preds = %21
  %23 = load ptr, ptr %calloc, align 8, !tbaa !77
  %24 = getelementptr inbounds nuw i8, ptr %23, i64 4
  %25 = load i32, ptr %24, align 4, !tbaa !40
  store i32 %25, ptr %2, align 4, !tbaa !23
  br label %26

26:                                               ; preds = %22, %21
  %.not16.i = icmp eq ptr %3, null
  br i1 %.not16.i, label %stbi__jpeg_info_raw.exit, label %27

27:                                               ; preds = %26
  %28 = load ptr, ptr %calloc, align 8, !tbaa !77
  %29 = getelementptr inbounds nuw i8, ptr %28, i64 8
  %30 = load i32, ptr %29, align 8, !tbaa !50
  %.inv.i = icmp slt i32 %30, 3
  %31 = select i1 %.inv.i, i32 1, i32 3
  store i32 %31, ptr %3, align 4, !tbaa !23
  br label %stbi__jpeg_info_raw.exit

stbi__jpeg_info_raw.exit:                         ; preds = %9, %26, %27
  %.0.i = phi i32 [ 0, %9 ], [ 1, %27 ], [ 1, %26 ]
  tail call void @free(ptr noundef nonnull %calloc) #37
  br label %32

32:                                               ; preds = %stbi__jpeg_info_raw.exit, %5
  %.0 = phi i32 [ %.0.i, %stbi__jpeg_info_raw.exit ], [ 0, %5 ]
  ret i32 %.0
}